; ModuleID = '20/1023.c'
source_filename = "20/1023.c"
target datalayout = "e-m:e-p270:32:32-p271:32:32-p272:64:64-i64:64-f80:128-n8:16:32:64-S128"
target triple = "x86_64-pc-linux-gnu"

@.str = private unnamed_addr constant [6 x i8] c"%s %s\00", align 1
@.str.1 = private unnamed_addr constant [3 x i8] c"%c\00", align 1
@.str.2 = private unnamed_addr constant [7 x i8] c"%c%c%c\00", align 1
@.str.3 = private unnamed_addr constant [2 x i8] c"\0A\00", align 1

; Function Attrs: noinline nounwind uwtable
define dso_local i32 @main() #0 {
  %1 = alloca i32, align 4
  %2 = alloca [11 x i8], align 1
  %3 = alloca [4 x i8], align 1
  %4 = alloca i8, align 1
  %5 = alloca i32, align 4
  %6 = alloca i32, align 4
  %7 = alloca i32, align 4
  store i32 0, i32* %1, align 4
  br label %8

8:                                                ; preds = %90, %0
  %9 = getelementptr inbounds [11 x i8], [11 x i8]* %2, i64 0, i64 0
  %10 = getelementptr inbounds [4 x i8], [4 x i8]* %3, i64 0, i64 0
  %11 = call i32 (i8*, ...) @__isoc99_scanf(i8* getelementptr inbounds ([6 x i8], [6 x i8]* @.str, i64 0, i64 0), i8* %9, i8* %10)
  %12 = icmp ne i32 %11, -1
  br i1 %12, label %13, label %91

13:                                               ; preds = %8
  %14 = getelementptr inbounds [11 x i8], [11 x i8]* %2, i64 0, i64 0
  %15 = load i8, i8* %14, align 1
  store i8 %15, i8* %4, align 1
  store i32 0, i32* %7, align 4
  store i32 1, i32* %5, align 4
  br label %16

16:                                               ; preds = %40, %13
  %17 = load i32, i32* %5, align 4
  %18 = sext i32 %17 to i64
  %19 = getelementptr inbounds [11 x i8], [11 x i8]* %2, i64 0, i64 %18
  %20 = load i8, i8* %19, align 1
  %21 = sext i8 %20 to i32
  %22 = icmp eq i32 %21, 0
  br i1 %22, label %23, label %24

23:                                               ; preds = %16
  br label %43

24:                                               ; preds = %16
  %25 = load i32, i32* %5, align 4
  %26 = sext i32 %25 to i64
  %27 = getelementptr inbounds [11 x i8], [11 x i8]* %2, i64 0, i64 %26
  %28 = load i8, i8* %27, align 1
  %29 = sext i8 %28 to i32
  %30 = load i8, i8* %4, align 1
  %31 = sext i8 %30 to i32
  %32 = icmp sgt i32 %29, %31
  br i1 %32, label %33, label %39

33:                                               ; preds = %24
  %34 = load i32, i32* %5, align 4
  %35 = sext i32 %34 to i64
  %36 = getelementptr inbounds [11 x i8], [11 x i8]* %2, i64 0, i64 %35
  %37 = load i8, i8* %36, align 1
  store i8 %37, i8* %4, align 1
  %38 = load i32, i32* %5, align 4
  store i32 %38, i32* %7, align 4
  br label %39

39:                                               ; preds = %33, %24
  br label %40

40:                                               ; preds = %39
  %41 = load i32, i32* %5, align 4
  %42 = add nsw i32 %41, 1
  store i32 %42, i32* %5, align 4
  br label %16

43:                                               ; preds = %23
  store i32 0, i32* %6, align 4
  br label %44

44:                                               ; preds = %55, %43
  %45 = load i32, i32* %6, align 4
  %46 = load i32, i32* %7, align 4
  %47 = icmp sle i32 %45, %46
  br i1 %47, label %48, label %58

48:                                               ; preds = %44
  %49 = load i32, i32* %6, align 4
  %50 = sext i32 %49 to i64
  %51 = getelementptr inbounds [11 x i8], [11 x i8]* %2, i64 0, i64 %50
  %52 = load i8, i8* %51, align 1
  %53 = sext i8 %52 to i32
  %54 = call i32 (i8*, ...) @printf(i8* getelementptr inbounds ([3 x i8], [3 x i8]* @.str.1, i64 0, i64 0), i32 %53)
  br label %55

55:                                               ; preds = %48
  %56 = load i32, i32* %6, align 4
  %57 = add nsw i32 %56, 1
  store i32 %57, i32* %6, align 4
  br label %44

58:                                               ; preds = %44
  %59 = getelementptr inbounds [4 x i8], [4 x i8]* %3, i64 0, i64 0
  %60 = load i8, i8* %59, align 1
  %61 = sext i8 %60 to i32
  %62 = getelementptr inbounds [4 x i8], [4 x i8]* %3, i64 0, i64 1
  %63 = load i8, i8* %62, align 1
  %64 = sext i8 %63 to i32
  %65 = getelementptr inbounds [4 x i8], [4 x i8]* %3, i64 0, i64 2
  %66 = load i8, i8* %65, align 1
  %67 = sext i8 %66 to i32
  %68 = call i32 (i8*, ...) @printf(i8* getelementptr inbounds ([7 x i8], [7 x i8]* @.str.2, i64 0, i64 0), i32 %61, i32 %64, i32 %67)
  %69 = load i32, i32* %7, align 4
  %70 = add nsw i32 %69, 1
  store i32 %70, i32* %6, align 4
  br label %71

71:                                               ; preds = %87, %58
  %72 = load i32, i32* %6, align 4
  %73 = sext i32 %72 to i64
  %74 = getelementptr inbounds [11 x i8], [11 x i8]* %2, i64 0, i64 %73
  %75 = load i8, i8* %74, align 1
  %76 = sext i8 %75 to i32
  %77 = icmp eq i32 %76, 0
  br i1 %77, label %78, label %80

78:                                               ; preds = %71
  %79 = call i32 (i8*, ...) @printf(i8* getelementptr inbounds ([2 x i8], [2 x i8]* @.str.3, i64 0, i64 0))
  br label %90

80:                                               ; preds = %71
  %81 = load i32, i32* %6, align 4
  %82 = sext i32 %81 to i64
  %83 = getelementptr inbounds [11 x i8], [11 x i8]* %2, i64 0, i64 %82
  %84 = load i8, i8* %83, align 1
  %85 = sext i8 %84 to i32
  %86 = call i32 (i8*, ...) @printf(i8* getelementptr inbounds ([3 x i8], [3 x i8]* @.str.1, i64 0, i64 0), i32 %85)
  br label %87

87:                                               ; preds = %80
  %88 = load i32, i32* %6, align 4
  %89 = add nsw i32 %88, 1
  store i32 %89, i32* %6, align 4
  br label %71

90:                                               ; preds = %78
  br label %8

91:                                               ; preds = %8
  ret i32 0
}

declare dso_local i32 @__isoc99_scanf(i8*, ...) #1

declare dso_local i32 @printf(i8*, ...) #1


!llvm.module.flags = !{!0}
!llvm.ident = !{!1}

!0 = !{i32 1, !"wchar_size", i32 4}
!1 = !{!"clang version 10.0.0-4ubuntu1 "}
